target datalayout = "e-m:e-p270:32:32-p271:32:32-p272:64:64-i64:64-i128:128-f80:128-n8:16:32:64-S128"
target triple = "x86_64-pc-linux-gnu"

%struct.archive_read = type { %struct.archive, ptr, i32, i64, i64, %struct.archive_read_client, [16 x %struct.archive_read_filter_bidder], ptr, i32, i64, i32, i32, [16 x %struct.archive_format_descriptor], ptr, ptr, ptr, %struct.anon }
%struct.archive = type { i32, i32, ptr, i32, ptr, i32, i32, ptr, %struct.archive_string, ptr, i32, i32, ptr, ptr, i64, i64, i64, i8, i64 }
%struct.archive_string = type { ptr, i64, i64 }
%struct.archive_read_client = type { ptr, ptr, ptr, ptr, ptr, ptr, i32, i32, i64, ptr }
%struct.archive_read_filter_bidder = type { ptr, ptr, ptr }
%struct.archive_format_descriptor = type { ptr, ptr, ptr, ptr, ptr, ptr, ptr, ptr, ptr, ptr, ptr }
%struct.anon = type { ptr, ptr, i32, ptr, ptr }
%struct.mtree = type { %struct.archive_string, i64, ptr, i64, i32, i32, ptr, ptr, ptr, %struct.archive_rb_tree, %struct.archive_string, %struct.archive_string, ptr, %struct.archive_rb_tree, i64, i8 }
%struct.archive_rb_tree = type { ptr, ptr }

; Function Attrs: nounwind uwtable
define internal i32 @skip(ptr noundef %0) #0 {
  %2 = alloca ptr, align 8
  %3 = alloca ptr, align 8
  store ptr %0, ptr %2, align 8
  %4 = load ptr, ptr %2, align 8
  %5 = getelementptr inbounds %struct.archive_read, ptr %4, i32 0, i32 13
  %6 = load ptr, ptr %5, align 8
  %7 = getelementptr inbounds %struct.archive_format_descriptor, ptr %6, i32 0, i32 0
  %8 = load ptr, ptr %7, align 8
  store ptr %8, ptr %3, align 8
  %9 = load ptr, ptr %3, align 8
  %10 = getelementptr inbounds %struct.mtree, ptr %9, i32 0, i32 4
  %11 = load i32, ptr %10, align 8
  %12 = icmp sge i32 %11, 0
  br i1 %12, label %13, label %20

13:                                               ; preds = %1
  %14 = load ptr, ptr %3, align 8
  %15 = getelementptr inbounds %struct.mtree, ptr %14, i32 0, i32 4
  %16 = load i32, ptr %15, align 8
  %17 = call i32 @close(i32 noundef %16)
  %18 = load ptr, ptr %3, align 8
  %19 = getelementptr inbounds %struct.mtree, ptr %18, i32 0, i32 4
  store i32 -1, ptr %19, align 8
  br label %20

20:                                               ; preds = %13, %1
  ret i32 0
}