; Function Attrs: nounwind uwtable
define internal noundef i32 @skip(ptr noundef readonly captures(none) %0) #0 {
  %2 = getelementptr inbounds nuw i8, ptr %0, i64 2072
  %3 = load ptr, ptr %2, align 8
  %4 = load ptr, ptr %3, align 8
  %5 = getelementptr inbounds nuw i8, ptr %4, i64 48
  %6 = load i32, ptr %5, align 8
  %7 = icmp sgt i32 %6, -1
  br i1 %7, label %8, label %10

8:                                                ; preds = %1
  %9 = tail call i32 @close(i32 noundef %6) #19
  store i32 -1, ptr %5, align 8
  br label %10

10:                                               ; preds = %8, %1
  ret i32 0
}